target datalayout = "e-m:e-p270:32:32-p271:32:32-p272:64:64-i64:64-i128:128-f80:128-n8:16:32:64-S128"
target triple = "x86_64-unknown-linux-gnu"

; Function Attrs: nounwind uwtable
define internal i32 @Shift(ptr noundef %word, i32 noundef %word_len, i16 noundef zeroext %parameter) #0 {
entry:
  %retval = alloca i32, align 4
  %word.addr = alloca ptr, align 8
  %word_len.addr = alloca i32, align 4
  %parameter.addr = alloca i16, align 2
  %scalar = alloca i32, align 4
  store ptr %word, ptr %word.addr, align 8
  store i32 %word_len, ptr %word_len.addr, align 4
  store i16 %parameter, ptr %parameter.addr, align 2
  %0 = load i16, ptr %parameter.addr, align 2
  %conv = zext i16 %0 to i32
  %and = and i32 %conv, 32767
  %1 = load i16, ptr %parameter.addr, align 2
  %conv1 = zext i16 %1 to i32
  %and2 = and i32 %conv1, 32768
  %sub = sub i32 16777216, %and2
  %add = add i32 %and, %sub
  store i32 %add, ptr %scalar, align 4
  %2 = load ptr, ptr %word.addr, align 8
  %arrayidx = getelementptr inbounds i8, ptr %2, i64 0
  %3 = load i8, ptr %arrayidx, align 1
  %conv3 = zext i8 %3 to i32
  %cmp = icmp slt i32 %conv3, 128
  br i1 %cmp, label %if.then, label %if.else

if.then:                                          ; preds = %entry
  %4 = load ptr, ptr %word.addr, align 8
  %arrayidx5 = getelementptr inbounds i8, ptr %4, i64 0
  %5 = load i8, ptr %arrayidx5, align 1
  %conv6 = zext i8 %5 to i32
  %6 = load i32, ptr %scalar, align 4
  %add7 = add i32 %6, %conv6
  store i32 %add7, ptr %scalar, align 4
  %7 = load i32, ptr %scalar, align 4
  %and8 = and i32 %7, 127
  %conv9 = trunc i32 %and8 to i8
  %8 = load ptr, ptr %word.addr, align 8
  %arrayidx10 = getelementptr inbounds i8, ptr %8, i64 0
  store i8 %conv9, ptr %arrayidx10, align 1
  store i32 1, ptr %retval, align 4
  br label %return

if.else:                                          ; preds = %entry
  %9 = load ptr, ptr %word.addr, align 8
  %arrayidx11 = getelementptr inbounds i8, ptr %9, i64 0
  %10 = load i8, ptr %arrayidx11, align 1
  %conv12 = zext i8 %10 to i32
  %cmp13 = icmp slt i32 %conv12, 192
  br i1 %cmp13, label %if.then15, label %if.else16

if.then15:                                        ; preds = %if.else
  store i32 1, ptr %retval, align 4
  br label %return

if.else16:                                        ; preds = %if.else
  %11 = load ptr, ptr %word.addr, align 8
  %arrayidx17 = getelementptr inbounds i8, ptr %11, i64 0
  %12 = load i8, ptr %arrayidx17, align 1
  %conv18 = zext i8 %12 to i32
  %cmp19 = icmp slt i32 %conv18, 224
  br i1 %cmp19, label %if.then21, label %if.else43

if.then21:                                        ; preds = %if.else16
  %13 = load i32, ptr %word_len.addr, align 4
  %cmp22 = icmp slt i32 %13, 2
  br i1 %cmp22, label %if.then24, label %if.end

if.then24:                                        ; preds = %if.then21
  store i32 1, ptr %retval, align 4
  br label %return

if.end:                                           ; preds = %if.then21
  %14 = load ptr, ptr %word.addr, align 8
  %arrayidx25 = getelementptr inbounds i8, ptr %14, i64 1
  %15 = load i8, ptr %arrayidx25, align 1
  %conv26 = zext i8 %15 to i32
  %and27 = and i32 %conv26, 63
  %16 = load ptr, ptr %word.addr, align 8
  %arrayidx28 = getelementptr inbounds i8, ptr %16, i64 0
  %17 = load i8, ptr %arrayidx28, align 1
  %conv29 = zext i8 %17 to i32
  %and30 = and i32 %conv29, 31
  %shl = shl i32 %and30, 6
  %or = or i32 %and27, %shl
  %18 = load i32, ptr %scalar, align 4
  %add31 = add i32 %18, %or
  store i32 %add31, ptr %scalar, align 4
  %19 = load i32, ptr %scalar, align 4
  %shr = lshr i32 %19, 6
  %and32 = and i32 %shr, 31
  %or33 = or i32 192, %and32
  %conv34 = trunc i32 %or33 to i8
  %20 = load ptr, ptr %word.addr, align 8
  %arrayidx35 = getelementptr inbounds i8, ptr %20, i64 0
  store i8 %conv34, ptr %arrayidx35, align 1
  %21 = load ptr, ptr %word.addr, align 8
  %arrayidx36 = getelementptr inbounds i8, ptr %21, i64 1
  %22 = load i8, ptr %arrayidx36, align 1
  %conv37 = zext i8 %22 to i32
  %and38 = and i32 %conv37, 192
  %23 = load i32, ptr %scalar, align 4
  %and39 = and i32 %23, 63
  %or40 = or i32 %and38, %and39
  %conv41 = trunc i32 %or40 to i8
  %24 = load ptr, ptr %word.addr, align 8
  %arrayidx42 = getelementptr inbounds i8, ptr %24, i64 1
  store i8 %conv41, ptr %arrayidx42, align 1
  store i32 2, ptr %retval, align 4
  br label %return

if.else43:                                        ; preds = %if.else16
  %25 = load ptr, ptr %word.addr, align 8
  %arrayidx44 = getelementptr inbounds i8, ptr %25, i64 0
  %26 = load i8, ptr %arrayidx44, align 1
  %conv45 = zext i8 %26 to i32
  %cmp46 = icmp slt i32 %conv45, 240
  br i1 %cmp46, label %if.then48, label %if.else87

if.then48:                                        ; preds = %if.else43
  %27 = load i32, ptr %word_len.addr, align 4
  %cmp49 = icmp slt i32 %27, 3
  br i1 %cmp49, label %if.then51, label %if.end52

if.then51:                                        ; preds = %if.then48
  %28 = load i32, ptr %word_len.addr, align 4
  store i32 %28, ptr %retval, align 4
  br label %return

if.end52:                                         ; preds = %if.then48
  %29 = load ptr, ptr %word.addr, align 8
  %arrayidx53 = getelementptr inbounds i8, ptr %29, i64 2
  %30 = load i8, ptr %arrayidx53, align 1
  %conv54 = zext i8 %30 to i32
  %and55 = and i32 %conv54, 63
  %31 = load ptr, ptr %word.addr, align 8
  %arrayidx56 = getelementptr inbounds i8, ptr %31, i64 1
  %32 = load i8, ptr %arrayidx56, align 1
  %conv57 = zext i8 %32 to i32
  %and58 = and i32 %conv57, 63
  %shl59 = shl i32 %and58, 6
  %or60 = or i32 %and55, %shl59
  %33 = load ptr, ptr %word.addr, align 8
  %arrayidx61 = getelementptr inbounds i8, ptr %33, i64 0
  %34 = load i8, ptr %arrayidx61, align 1
  %conv62 = zext i8 %34 to i32
  %and63 = and i32 %conv62, 15
  %shl64 = shl i32 %and63, 12
  %or65 = or i32 %or60, %shl64
  %35 = load i32, ptr %scalar, align 4
  %add66 = add i32 %35, %or65
  store i32 %add66, ptr %scalar, align 4
  %36 = load i32, ptr %scalar, align 4
  %shr67 = lshr i32 %36, 12
  %and68 = and i32 %shr67, 15
  %or69 = or i32 224, %and68
  %conv70 = trunc i32 %or69 to i8
  %37 = load ptr, ptr %word.addr, align 8
  %arrayidx71 = getelementptr inbounds i8, ptr %37, i64 0
  store i8 %conv70, ptr %arrayidx71, align 1
  %38 = load ptr, ptr %word.addr, align 8
  %arrayidx72 = getelementptr inbounds i8, ptr %38, i64 1
  %39 = load i8, ptr %arrayidx72, align 1
  %conv73 = zext i8 %39 to i32
  %and74 = and i32 %conv73, 192
  %40 = load i32, ptr %scalar, align 4
  %shr75 = lshr i32 %40, 6
  %and76 = and i32 %shr75, 63
  %or77 = or i32 %and74, %and76
  %conv78 = trunc i32 %or77 to i8
  %41 = load ptr, ptr %word.addr, align 8
  %arrayidx79 = getelementptr inbounds i8, ptr %41, i64 1
  store i8 %conv78, ptr %arrayidx79, align 1
  %42 = load ptr, ptr %word.addr, align 8
  %arrayidx80 = getelementptr inbounds i8, ptr %42, i64 2
  %43 = load i8, ptr %arrayidx80, align 1
  %conv81 = zext i8 %43 to i32
  %and82 = and i32 %conv81, 192
  %44 = load i32, ptr %scalar, align 4
  %and83 = and i32 %44, 63
  %or84 = or i32 %and82, %and83
  %conv85 = trunc i32 %or84 to i8
  %45 = load ptr, ptr %word.addr, align 8
  %arrayidx86 = getelementptr inbounds i8, ptr %45, i64 2
  store i8 %conv85, ptr %arrayidx86, align 1
  store i32 3, ptr %retval, align 4
  br label %return

if.else87:                                        ; preds = %if.else43
  %46 = load ptr, ptr %word.addr, align 8
  %arrayidx88 = getelementptr inbounds i8, ptr %46, i64 0
  %47 = load i8, ptr %arrayidx88, align 1
  %conv89 = zext i8 %47 to i32
  %cmp90 = icmp slt i32 %conv89, 248
  br i1 %cmp90, label %if.then92, label %if.end144

if.then92:                                        ; preds = %if.else87
  %48 = load i32, ptr %word_len.addr, align 4
  %cmp93 = icmp slt i32 %48, 4
  br i1 %cmp93, label %if.then95, label %if.end96

if.then95:                                        ; preds = %if.then92
  %49 = load i32, ptr %word_len.addr, align 4
  store i32 %49, ptr %retval, align 4
  br label %return

if.end96:                                         ; preds = %if.then92
  %50 = load ptr, ptr %word.addr, align 8
  %arrayidx97 = getelementptr inbounds i8, ptr %50, i64 3
  %51 = load i8, ptr %arrayidx97, align 1
  %conv98 = zext i8 %51 to i32
  %and99 = and i32 %conv98, 63
  %52 = load ptr, ptr %word.addr, align 8
  %arrayidx100 = getelementptr inbounds i8, ptr %52, i64 2
  %53 = load i8, ptr %arrayidx100, align 1
  %conv101 = zext i8 %53 to i32
  %and102 = and i32 %conv101, 63
  %shl103 = shl i32 %and102, 6
  %or104 = or i32 %and99, %shl103
  %54 = load ptr, ptr %word.addr, align 8
  %arrayidx105 = getelementptr inbounds i8, ptr %54, i64 1
  %55 = load i8, ptr %arrayidx105, align 1
  %conv106 = zext i8 %55 to i32
  %and107 = and i32 %conv106, 63
  %shl108 = shl i32 %and107, 12
  %or109 = or i32 %or104, %shl108
  %56 = load ptr, ptr %word.addr, align 8
  %arrayidx110 = getelementptr inbounds i8, ptr %56, i64 0
  %57 = load i8, ptr %arrayidx110, align 1
  %conv111 = zext i8 %57 to i32
  %and112 = and i32 %conv111, 7
  %shl113 = shl i32 %and112, 18
  %or114 = or i32 %or109, %shl113
  %58 = load i32, ptr %scalar, align 4
  %add115 = add i32 %58, %or114
  store i32 %add115, ptr %scalar, align 4
  %59 = load i32, ptr %scalar, align 4
  %shr116 = lshr i32 %59, 18
  %and117 = and i32 %shr116, 7
  %or118 = or i32 240, %and117
  %conv119 = trunc i32 %or118 to i8
  %60 = load ptr, ptr %word.addr, align 8
  %arrayidx120 = getelementptr inbounds i8, ptr %60, i64 0
  store i8 %conv119, ptr %arrayidx120, align 1
  %61 = load ptr, ptr %word.addr, align 8
  %arrayidx121 = getelementptr inbounds i8, ptr %61, i64 1
  %62 = load i8, ptr %arrayidx121, align 1
  %conv122 = zext i8 %62 to i32
  %and123 = and i32 %conv122, 192
  %63 = load i32, ptr %scalar, align 4
  %shr124 = lshr i32 %63, 12
  %and125 = and i32 %shr124, 63
  %or126 = or i32 %and123, %and125
  %conv127 = trunc i32 %or126 to i8
  %64 = load ptr, ptr %word.addr, align 8
  %arrayidx128 = getelementptr inbounds i8, ptr %64, i64 1
  store i8 %conv127, ptr %arrayidx128, align 1
  %65 = load ptr, ptr %word.addr, align 8
  %arrayidx129 = getelementptr inbounds i8, ptr %65, i64 2
  %66 = load i8, ptr %arrayidx129, align 1
  %conv130 = zext i8 %66 to i32
  %and131 = and i32 %conv130, 192
  %67 = load i32, ptr %scalar, align 4
  %shr132 = lshr i32 %67, 6
  %and133 = and i32 %shr132, 63
  %or134 = or i32 %and131, %and133
  %conv135 = trunc i32 %or134 to i8
  %68 = load ptr, ptr %word.addr, align 8
  %arrayidx136 = getelementptr inbounds i8, ptr %68, i64 2
  store i8 %conv135, ptr %arrayidx136, align 1
  %69 = load ptr, ptr %word.addr, align 8
  %arrayidx137 = getelementptr inbounds i8, ptr %69, i64 3
  %70 = load i8, ptr %arrayidx137, align 1
  %conv138 = zext i8 %70 to i32
  %and139 = and i32 %conv138, 192
  %71 = load i32, ptr %scalar, align 4
  %and140 = and i32 %71, 63
  %or141 = or i32 %and139, %and140
  %conv142 = trunc i32 %or141 to i8
  %72 = load ptr, ptr %word.addr, align 8
  %arrayidx143 = getelementptr inbounds i8, ptr %72, i64 3
  store i8 %conv142, ptr %arrayidx143, align 1
  store i32 4, ptr %retval, align 4
  br label %return

if.end144:                                        ; preds = %if.else87
  br label %if.end145

if.end145:                                        ; preds = %if.end144
  br label %if.end146

if.end146:                                        ; preds = %if.end145
  br label %if.end147

if.end147:                                        ; preds = %if.end146
  br label %if.end148

if.end148:                                        ; preds = %if.end147
  store i32 1, ptr %retval, align 4
  br label %return

return:                                           ; preds = %if.end148, %if.end96, %if.then95, %if.end52, %if.then51, %if.end, %if.then24, %if.then15, %if.then
  %73 = load i32, ptr %retval, align 4
  ret i32 %73
}