; Function Attrs: mustprogress nofree norecurse nosync nounwind willreturn memory(argmem: readwrite) uwtable
define internal fastcc range(i32 -2147483648, 5) i32 @Shift(ptr noundef captures(none) %word, i32 noundef %word_len, i16 noundef zeroext %parameter) unnamed_addr #2 {
entry:
  %conv = zext i16 %parameter to i32
  %and = and i32 %conv, 32767
  %and2 = and i32 %conv, 32768
  %reass.sub = sub nsw i32 %and, %and2
  %add = add nsw i32 %reass.sub, 16777216
  %0 = load i8, ptr %word, align 1
  %conv3 = zext i8 %0 to i32
  %cmp = icmp sgt i8 %0, -1
  br i1 %cmp, label %if.then, label %if.else

if.then:                                          ; preds = %entry
  %1 = trunc i16 %parameter to i8
  %2 = add i8 %0, %1
  %conv9 = and i8 %2, 127
  store i8 %conv9, ptr %word, align 1
  br label %return

if.else:                                          ; preds = %entry
  %cmp13 = icmp samesign ult i8 %0, -64
  br i1 %cmp13, label %return, label %if.else16

if.else16:                                        ; preds = %if.else
  %cmp19 = icmp samesign ult i8 %0, -32
  br i1 %cmp19, label %if.then21, label %if.else43

if.then21:                                        ; preds = %if.else16
  %cmp22 = icmp slt i32 %word_len, 2
  br i1 %cmp22, label %return, label %if.end

if.end:                                           ; preds = %if.then21
  %arrayidx25 = getelementptr inbounds nuw i8, ptr %word, i64 1
  %3 = load i8, ptr %arrayidx25, align 1
  %4 = and i8 %3, 63
  %and27 = zext nneg i8 %4 to i32
  %and30 = shl nuw nsw i32 %conv3, 6
  %shl = and i32 %and30, 1984
  %or = or disjoint i32 %shl, %and27
  %add31 = add nuw nsw i32 %or, %add
  %shr = lshr i32 %add31, 6
  %5 = trunc i32 %shr to i8
  %6 = and i8 %5, 31
  %conv34 = or disjoint i8 %6, -64
  store i8 %conv34, ptr %word, align 1
  %7 = and i8 %3, -64
  %8 = trunc i32 %add31 to i8
  %9 = and i8 %8, 63
  %conv41 = or disjoint i8 %9, %7
  store i8 %conv41, ptr %arrayidx25, align 1
  br label %return

if.else43:                                        ; preds = %if.else16
  %cmp46 = icmp samesign ult i8 %0, -16
  br i1 %cmp46, label %if.then48, label %if.else87

if.then48:                                        ; preds = %if.else43
  %cmp49 = icmp slt i32 %word_len, 3
  br i1 %cmp49, label %return, label %if.end52

if.end52:                                         ; preds = %if.then48
  %arrayidx53 = getelementptr inbounds nuw i8, ptr %word, i64 2
  %10 = load i8, ptr %arrayidx53, align 1
  %11 = and i8 %10, 63
  %and55 = zext nneg i8 %11 to i32
  %arrayidx56 = getelementptr inbounds nuw i8, ptr %word, i64 1
  %12 = load i8, ptr %arrayidx56, align 1
  %13 = and i8 %12, 63
  %and58 = zext nneg i8 %13 to i32
  %shl59 = shl nuw nsw i32 %and58, 6
  %and63 = shl nuw nsw i32 %conv3, 12
  %shl64 = and i32 %and63, 61440
  %or65 = add nuw nsw i32 %shl64, %add
  %or60 = add nuw nsw i32 %or65, %and55
  %add66 = add nuw nsw i32 %or60, %shl59
  %shr67 = lshr i32 %add66, 12
  %14 = trunc i32 %shr67 to i8
  %15 = and i8 %14, 15
  %conv70 = or disjoint i8 %15, -32
  store i8 %conv70, ptr %word, align 1
  %16 = and i8 %12, -64
  %shr75 = lshr i32 %add66, 6
  %17 = trunc i32 %shr75 to i8
  %18 = and i8 %17, 63
  %conv78 = or disjoint i8 %18, %16
  store i8 %conv78, ptr %arrayidx56, align 1
  %19 = and i8 %10, -64
  %20 = trunc i32 %or60 to i8
  %21 = and i8 %20, 63
  %conv85 = or disjoint i8 %21, %19
  store i8 %conv85, ptr %arrayidx53, align 1
  br label %return

if.else87:                                        ; preds = %if.else43
  %cmp90 = icmp samesign ult i8 %0, -8
  br i1 %cmp90, label %if.then92, label %return

if.then92:                                        ; preds = %if.else87
  %cmp93 = icmp slt i32 %word_len, 4
  br i1 %cmp93, label %return, label %if.end96

if.end96:                                         ; preds = %if.then92
  %arrayidx97 = getelementptr inbounds nuw i8, ptr %word, i64 3
  %22 = load i8, ptr %arrayidx97, align 1
  %23 = and i8 %22, 63
  %and99 = zext nneg i8 %23 to i32
  %arrayidx100 = getelementptr inbounds nuw i8, ptr %word, i64 2
  %24 = load i8, ptr %arrayidx100, align 1
  %25 = and i8 %24, 63
  %and102 = zext nneg i8 %25 to i32
  %shl103 = shl nuw nsw i32 %and102, 6
  %arrayidx105 = getelementptr inbounds nuw i8, ptr %word, i64 1
  %26 = load i8, ptr %arrayidx105, align 1
  %27 = and i8 %26, 63
  %and107 = zext nneg i8 %27 to i32
  %shl108 = shl nuw nsw i32 %and107, 12
  %and112 = shl nuw nsw i32 %conv3, 18
  %shl113 = and i32 %and112, 1835008
  %or114 = add nuw nsw i32 %shl113, %add
  %or104 = add nuw nsw i32 %or114, %and99
  %or109 = add nuw nsw i32 %or104, %shl103
  %add115 = add nuw nsw i32 %or109, %shl108
  %shr116 = lshr i32 %add115, 18
  %28 = trunc nuw nsw i32 %shr116 to i8
  %29 = and i8 %28, 7
  %conv119 = or disjoint i8 %29, -16
  store i8 %conv119, ptr %word, align 1
  %30 = and i8 %26, -64
  %shr124 = lshr i32 %add115, 12
  %31 = trunc i32 %shr124 to i8
  %32 = and i8 %31, 63
  %conv127 = or disjoint i8 %32, %30
  store i8 %conv127, ptr %arrayidx105, align 1
  %33 = and i8 %24, -64
  %shr132 = lshr i32 %or109, 6
  %34 = trunc i32 %shr132 to i8
  %35 = and i8 %34, 63
  %conv135 = or disjoint i8 %35, %33
  store i8 %conv135, ptr %arrayidx100, align 1
  %36 = and i8 %22, -64
  %37 = trunc i32 %or104 to i8
  %38 = and i8 %37, 63
  %conv142 = or disjoint i8 %38, %36
  store i8 %conv142, ptr %arrayidx97, align 1
  br label %return

return:                                           ; preds = %if.else87, %if.then92, %if.then48, %if.then21, %if.else, %if.end96, %if.end52, %if.end, %if.then
  %retval.0 = phi i32 [ 1, %if.then ], [ 2, %if.end ], [ 3, %if.end52 ], [ 4, %if.end96 ], [ 1, %if.else ], [ 1, %if.then21 ], [ %word_len, %if.then48 ], [ %word_len, %if.then92 ], [ 1, %if.else87 ]
  ret i32 %retval.0
}